; Function Attrs: mustprogress uwtable
define dso_local void @_ZN3net21QuicSentPacketManager31RecordOneSpuriousRetransmissionERKNS_16TransmissionInfoE(ptr nocapture noundef nonnull readonly align 8 dereferenceable(776) %this, ptr nocapture noundef nonnull readonly align 8 dereferenceable(80) %info) local_unnamed_addr #0 align 2 {
entry:
  %bytes_sent = getelementptr inbounds i8, ptr %info, i64 26
  %0 = load i16, ptr %bytes_sent, align 2
  %conv = zext i16 %0 to i64
  %stats_ = getelementptr inbounds i8, ptr %this, i64 224
  %1 = load ptr, ptr %stats_, align 8
  %bytes_spuriously_retransmitted = getelementptr inbounds i8, ptr %1, i64 80
  %2 = load i64, ptr %bytes_spuriously_retransmitted, align 8
  %add = add i64 %2, %conv
  store i64 %add, ptr %bytes_spuriously_retransmitted, align 8
  %3 = load ptr, ptr %stats_, align 8
  %packets_spuriously_retransmitted = getelementptr inbounds i8, ptr %3, i64 88
  %4 = load i64, ptr %packets_spuriously_retransmitted, align 8
  %inc = add i64 %4, 1
  store i64 %inc, ptr %packets_spuriously_retransmitted, align 8
  %debug_delegate_ = getelementptr inbounds i8, ptr %this, i64 240
  %5 = load ptr, ptr %debug_delegate_, align 8
  %cmp.not = icmp eq ptr %5, null
  br i1 %cmp.not, label %if.end, label %if.then

if.then:                                          ; preds = %entry
  %transmission_type = getelementptr inbounds i8, ptr %info, i64 40
  %6 = load i8, ptr %transmission_type, align 8
  %7 = load i16, ptr %bytes_sent, align 2
  %conv5 = zext i16 %7 to i64
  %vtable = load ptr, ptr %5, align 8
  %vfn = getelementptr inbounds i8, ptr %vtable, i64 16
  %8 = load ptr, ptr %vfn, align 8
  tail call void %8(ptr noundef nonnull align 8 dereferenceable(8) %5, i8 noundef signext %6, i64 noundef %conv5)
  br label %if.end

if.end:                                           ; preds = %if.then, %entry
  ret void
}